(dp0
I1
S'empty'
p1
sI2
g1
sI3
g1
sI4
g1
sI5
g1
sI6
g1
sI7
g1
sI8
g1
sI9
g1
sI10
g1
sI11
g1
sI12
g1
sI13
g1
sI14
g1
sI15
g1
sI16
g1
sI17
g1
sI18
g1
sI19
g1
sI20
g1
sI21
g1
sI22
g1
sI23
g1
sI24
g1
sI25
g1
sI26
g1
sI27
g1
sI28
g1
sI29
g1
sI30
g1
s.